target datalayout = "e-m:e-p270:32:32-p271:32:32-p272:64:64-i64:64-i128:128-f80:128-n8:16:32:64-S128"
target triple = "x86_64-pc-linux-gnu"

%struct.H5O_cache_ud_t = type { i8, i32, i64, ptr, i8, %struct.H5O_common_cache_ud_t }
%struct.H5O_common_cache_ud_t = type { ptr, i32, i32, ptr, i64 }
%struct.H5O_t = type { %struct.H5C_cache_entry_t, i64, i64, i8, i64, i8, i32, i8, i8, i64, i64, i64, i64, i32, i32, i64, i64, ptr, i64, i64, i64, i64, ptr, i8, ptr }
%struct.H5C_cache_entry_t = type { ptr, i64, i64, ptr, i8, ptr, i8, i8, i8, i8, i32, i8, i8, i8, i8, i8, i32, ptr, i32, i32, i32, i32, i32, i8, i8, ptr, ptr, ptr, ptr, ptr, ptr, i8, i32, i8, i64, ptr, i64, i64, i32, i8, i32, i32, i8, ptr, ptr, ptr }

@H5O_init_g = external global i8, align 1
@H5_libterm_g = external global i8, align 1
@.str.3 = private unnamed_addr constant [102 x i8] c"generated/home/dtcxzyw/WorkSpace/Projects/compilers/llvm-opt-benchmark/bench/hdf5/hdf5/src/H5Ocache.c\00", align 1
@H5E_OHDR_g = external global i64, align 8
@H5E_CANTDECODE_g = external global i64, align 8
@.str.4 = private unnamed_addr constant [39 x i8] c"can't deserialize object header prefix\00", align 1
@H5E_CANTRELEASE_g = external global i64, align 8
@H5E_BADVALUE_g = external global i64, align 8
@.str.15 = private unnamed_addr constant [37 x i8] c"unable to destroy object header data\00", align 1
@__func__.H5O__cache_deserialize = private unnamed_addr constant [23 x i8] c"H5O__cache_deserialize\00", align 1
@H5E_CANTCREATE_g = external global i64, align 8
@.str.17 = private unnamed_addr constant [33 x i8] c"can't create object header proxy\00", align 1
@H5E_CANTINIT_g = external global i64, align 8
@.str.18 = private unnamed_addr constant [44 x i8] c"can't deserialize first object header chunk\00", align 1
@.str.19 = private unnamed_addr constant [32 x i8] c"bad object header message count\00", align 1

; Function Attrs: nounwind uwtable
define internal ptr @H5O__cache_deserialize(ptr noundef %0, i64 noundef %1, ptr noundef %2, ptr noundef %3) #0 {
  %5 = alloca ptr, align 8
  %6 = alloca i64, align 8
  %7 = alloca ptr, align 8
  %8 = alloca ptr, align 8
  %9 = alloca ptr, align 8
  %10 = alloca ptr, align 8
  %11 = alloca ptr, align 8
  %12 = alloca i8, align 1
  store ptr %0, ptr %5, align 8, !tbaa !3
  store i64 %1, ptr %6, align 8, !tbaa !13
  store ptr %2, ptr %7, align 8, !tbaa !3
  store ptr %3, ptr %8, align 8, !tbaa !41
  call void @llvm.lifetime.start.p0(i64 8, ptr %9) #7
  store ptr null, ptr %9, align 8, !tbaa !43
  call void @llvm.lifetime.start.p0(i64 8, ptr %10) #7
  %13 = load ptr, ptr %7, align 8, !tbaa !3
  store ptr %13, ptr %10, align 8, !tbaa !15
  call void @llvm.lifetime.start.p0(i64 8, ptr %11) #7
  store ptr null, ptr %11, align 8, !tbaa !3
  call void @llvm.lifetime.start.p0(i64 1, ptr %12) #7
  store i8 0, ptr %12, align 1, !tbaa !9
  %14 = load i8, ptr @H5O_init_g, align 1, !tbaa !9, !range !11, !noundef !12
  %15 = trunc i8 %14 to i1
  br i1 %15, label %20, label %16

16:                                               ; preds = %4
  %17 = load i8, ptr @H5_libterm_g, align 1, !tbaa !9, !range !11, !noundef !12
  %18 = trunc i8 %17 to i1
  %19 = xor i1 %18, true
  br label %20

20:                                               ; preds = %16, %4
  %21 = phi i1 [ true, %4 ], [ %19, %16 ]
  %22 = xor i1 %21, true
  %23 = xor i1 %22, true
  %24 = zext i1 %23 to i32
  %25 = sext i32 %24 to i64
  %26 = call i64 @llvm.expect.i64(i64 %25, i64 1)
  %27 = icmp ne i64 %26, 0
  br i1 %27, label %28, label %202

28:                                               ; preds = %20
  %29 = load ptr, ptr %5, align 8, !tbaa !3
  %30 = load i64, ptr %6, align 8, !tbaa !13
  %31 = load ptr, ptr %10, align 8, !tbaa !15
  %32 = call i32 @H5O__prefix_deserialize(ptr noundef %29, i64 noundef %30, ptr noundef %31)
  %33 = icmp slt i32 %32, 0
  br i1 %33, label %34, label %53

34:                                               ; preds = %28
  br label %35

35:                                               ; preds = %34
  br label %36

36:                                               ; preds = %35
  br label %37

37:                                               ; preds = %36
  %38 = load i64, ptr @H5E_OHDR_g, align 8, !tbaa !13
  %39 = load i64, ptr @H5E_CANTDECODE_g, align 8, !tbaa !13
  %40 = call i32 (ptr, ptr, i32, i64, i64, ptr, ...) @H5E_printf_stack(ptr noundef @.str.3, ptr noundef @__func__.H5O__cache_deserialize, i32 noundef 282, i64 noundef %38, i64 noundef %39, ptr noundef @.str.4)
  br label %41

41:                                               ; preds = %37
  br label %42

42:                                               ; preds = %41
  store i8 1, ptr %12, align 1, !tbaa !9
  %43 = load i8, ptr %12, align 1, !tbaa !9, !range !11, !noundef !12
  %44 = trunc i8 %43 to i1
  %45 = zext i1 %44 to i8
  store i8 %45, ptr %12, align 1, !tbaa !9
  br label %46

46:                                               ; preds = %42
  br label %47

47:                                               ; preds = %46
  br label %48

48:                                               ; preds = %47
  store ptr null, ptr %11, align 8, !tbaa !3
  br label %174

49:                                               ; No predecessors!
  br label %50

50:                                               ; preds = %49
  br label %51

51:                                               ; preds = %50
  br label %52

52:                                               ; preds = %51
  br label %53

53:                                               ; preds = %52, %28
  %54 = load ptr, ptr %10, align 8, !tbaa !15
  %55 = getelementptr inbounds nuw %struct.H5O_cache_ud_t, ptr %54, i32 0, i32 3
  %56 = load ptr, ptr %55, align 8, !tbaa !25
  store ptr %56, ptr %9, align 8, !tbaa !43
  %57 = load ptr, ptr %10, align 8, !tbaa !15
  %58 = getelementptr inbounds nuw %struct.H5O_cache_ud_t, ptr %57, i32 0, i32 5
  %59 = getelementptr inbounds nuw %struct.H5O_common_cache_ud_t, ptr %58, i32 0, i32 0
  %60 = load ptr, ptr %59, align 8, !tbaa !44
  %61 = call i32 @H5F_get_intent(ptr noundef %60)
  %62 = and i32 %61, 32
  %63 = icmp ne i32 %62, 0
  %64 = xor i1 %63, true
  %65 = xor i1 %64, true
  %66 = load ptr, ptr %9, align 8, !tbaa !43
  %67 = getelementptr inbounds nuw %struct.H5O_t, ptr %66, i32 0, i32 3
  %68 = zext i1 %65 to i8
  store i8 %68, ptr %67, align 8, !tbaa !45
  %69 = load ptr, ptr %9, align 8, !tbaa !43
  %70 = getelementptr inbounds nuw %struct.H5O_t, ptr %69, i32 0, i32 3
  %71 = load i8, ptr %70, align 8, !tbaa !45, !range !11, !noundef !12
  %72 = trunc i8 %71 to i1
  br i1 %72, label %73, label %98

73:                                               ; preds = %53
  %74 = call ptr @H5AC_proxy_entry_create()
  %75 = load ptr, ptr %9, align 8, !tbaa !43
  %76 = getelementptr inbounds nuw %struct.H5O_t, ptr %75, i32 0, i32 24
  store ptr %74, ptr %76, align 8, !tbaa !46
  %77 = icmp eq ptr null, %74
  br i1 %77, label %78, label %97

78:                                               ; preds = %73
  br label %79

79:                                               ; preds = %78
  br label %80

80:                                               ; preds = %79
  br label %81

81:                                               ; preds = %80
  %82 = load i64, ptr @H5E_OHDR_g, align 8, !tbaa !13
  %83 = load i64, ptr @H5E_CANTCREATE_g, align 8, !tbaa !13
  %84 = call i32 (ptr, ptr, i32, i64, i64, ptr, ...) @H5E_printf_stack(ptr noundef @.str.3, ptr noundef @__func__.H5O__cache_deserialize, i32 noundef 294, i64 noundef %82, i64 noundef %83, ptr noundef @.str.17)
  br label %85

85:                                               ; preds = %81
  br label %86

86:                                               ; preds = %85
  store i8 1, ptr %12, align 1, !tbaa !9
  %87 = load i8, ptr %12, align 1, !tbaa !9, !range !11, !noundef !12
  %88 = trunc i8 %87 to i1
  %89 = zext i1 %88 to i8
  store i8 %89, ptr %12, align 1, !tbaa !9
  br label %90

90:                                               ; preds = %86
  br label %91

91:                                               ; preds = %90
  br label %92

92:                                               ; preds = %91
  store ptr null, ptr %11, align 8, !tbaa !3
  br label %174

93:                                               ; No predecessors!
  br label %94

94:                                               ; preds = %93
  br label %95

95:                                               ; preds = %94
  br label %96

96:                                               ; preds = %95
  br label %97

97:                                               ; preds = %96, %73
  br label %101

98:                                               ; preds = %53
  %99 = load ptr, ptr %9, align 8, !tbaa !43
  %100 = getelementptr inbounds nuw %struct.H5O_t, ptr %99, i32 0, i32 24
  store ptr null, ptr %100, align 8, !tbaa !46
  br label %101

101:                                              ; preds = %98, %97
  %102 = load ptr, ptr %9, align 8, !tbaa !43
  %103 = load ptr, ptr %10, align 8, !tbaa !15
  %104 = getelementptr inbounds nuw %struct.H5O_cache_ud_t, ptr %103, i32 0, i32 5
  %105 = getelementptr inbounds nuw %struct.H5O_common_cache_ud_t, ptr %104, i32 0, i32 4
  %106 = load i64, ptr %105, align 8, !tbaa !47
  %107 = load ptr, ptr %10, align 8, !tbaa !15
  %108 = getelementptr inbounds nuw %struct.H5O_cache_ud_t, ptr %107, i32 0, i32 2
  %109 = load i64, ptr %108, align 8, !tbaa !19
  %110 = load ptr, ptr %5, align 8, !tbaa !3
  %111 = load i64, ptr %6, align 8, !tbaa !13
  %112 = load ptr, ptr %10, align 8, !tbaa !15
  %113 = getelementptr inbounds nuw %struct.H5O_cache_ud_t, ptr %112, i32 0, i32 5
  %114 = load ptr, ptr %8, align 8, !tbaa !41
  %115 = call i32 @H5O__chunk_deserialize(ptr noundef %102, i64 noundef %106, i64 noundef %109, ptr noundef %110, i64 noundef %111, ptr noundef %113, ptr noundef %114)
  %116 = icmp slt i32 %115, 0
  br i1 %116, label %117, label %136

117:                                              ; preds = %101
  br label %118

118:                                              ; preds = %117
  br label %119

119:                                              ; preds = %118
  br label %120

120:                                              ; preds = %119
  %121 = load i64, ptr @H5E_OHDR_g, align 8, !tbaa !13
  %122 = load i64, ptr @H5E_CANTINIT_g, align 8, !tbaa !13
  %123 = call i32 (ptr, ptr, i32, i64, i64, ptr, ...) @H5E_printf_stack(ptr noundef @.str.3, ptr noundef @__func__.H5O__cache_deserialize, i32 noundef 302, i64 noundef %121, i64 noundef %122, ptr noundef @.str.18)
  br label %124

124:                                              ; preds = %120
  br label %125

125:                                              ; preds = %124
  store i8 1, ptr %12, align 1, !tbaa !9
  %126 = load i8, ptr %12, align 1, !tbaa !9, !range !11, !noundef !12
  %127 = trunc i8 %126 to i1
  %128 = zext i1 %127 to i8
  store i8 %128, ptr %12, align 1, !tbaa !9
  br label %129

129:                                              ; preds = %125
  br label %130

130:                                              ; preds = %129
  br label %131

131:                                              ; preds = %130
  store ptr null, ptr %11, align 8, !tbaa !3
  br label %174

132:                                              ; No predecessors!
  br label %133

133:                                              ; preds = %132
  br label %134

134:                                              ; preds = %133
  br label %135

135:                                              ; preds = %134
  br label %136

136:                                              ; preds = %135, %101
  %137 = load ptr, ptr %9, align 8, !tbaa !43
  %138 = getelementptr inbounds nuw %struct.H5O_t, ptr %137, i32 0, i32 7
  %139 = load i8, ptr %138, align 8, !tbaa !26
  %140 = zext i8 %139 to i32
  %141 = icmp eq i32 %140, 1
  br i1 %141, label %142, label %170

142:                                              ; preds = %136
  %143 = load ptr, ptr %10, align 8, !tbaa !15
  %144 = getelementptr inbounds nuw %struct.H5O_cache_ud_t, ptr %143, i32 0, i32 1
  %145 = load i32, ptr %144, align 4, !tbaa !48
  %146 = zext i32 %145 to i64
  %147 = load ptr, ptr %9, align 8, !tbaa !43
  %148 = getelementptr inbounds nuw %struct.H5O_t, ptr %147, i32 0, i32 15
  %149 = load i64, ptr %148, align 8, !tbaa !49
  %150 = icmp ult i64 %146, %149
  br i1 %150, label %151, label %170

151:                                              ; preds = %142
  br label %152

152:                                              ; preds = %151
  br label %153

153:                                              ; preds = %152
  br label %154

154:                                              ; preds = %153
  %155 = load i64, ptr @H5E_OHDR_g, align 8, !tbaa !13
  %156 = load i64, ptr @H5E_BADVALUE_g, align 8, !tbaa !13
  %157 = call i32 (ptr, ptr, i32, i64, i64, ptr, ...) @H5E_printf_stack(ptr noundef @.str.3, ptr noundef @__func__.H5O__cache_deserialize, i32 noundef 306, i64 noundef %155, i64 noundef %156, ptr noundef @.str.19)
  br label %158

158:                                              ; preds = %154
  br label %159

159:                                              ; preds = %158
  store i8 1, ptr %12, align 1, !tbaa !9
  %160 = load i8, ptr %12, align 1, !tbaa !9, !range !11, !noundef !12
  %161 = trunc i8 %160 to i1
  %162 = zext i1 %161 to i8
  store i8 %162, ptr %12, align 1, !tbaa !9
  br label %163

163:                                              ; preds = %159
  br label %164

164:                                              ; preds = %163
  br label %165

165:                                              ; preds = %164
  store ptr null, ptr %11, align 8, !tbaa !3
  br label %174

166:                                              ; No predecessors!
  br label %167

167:                                              ; preds = %166
  br label %168

168:                                              ; preds = %167
  br label %169

169:                                              ; preds = %168
  br label %170

170:                                              ; preds = %169, %142, %136
  %171 = load ptr, ptr %10, align 8, !tbaa !15
  %172 = getelementptr inbounds nuw %struct.H5O_cache_ud_t, ptr %171, i32 0, i32 0
  store i8 1, ptr %172, align 8, !tbaa !50
  %173 = load ptr, ptr %9, align 8, !tbaa !43
  store ptr %173, ptr %11, align 8, !tbaa !3
  br label %174

174:                                              ; preds = %170, %165, %131, %92, %48
  %175 = load ptr, ptr %11, align 8, !tbaa !3
  %176 = icmp ne ptr %175, null
  br i1 %176, label %201, label %177

177:                                              ; preds = %174
  %178 = load ptr, ptr %9, align 8, !tbaa !43
  %179 = icmp ne ptr %178, null
  br i1 %179, label %180, label %201

180:                                              ; preds = %177
  %181 = load ptr, ptr %9, align 8, !tbaa !43
  %182 = call i32 @H5O__free(ptr noundef %181, i1 noundef zeroext false)
  %183 = icmp slt i32 %182, 0
  br i1 %183, label %184, label %200

184:                                              ; preds = %180
  br label %185

185:                                              ; preds = %184
  br label %186

186:                                              ; preds = %185
  br label %187

187:                                              ; preds = %186
  %188 = load i64, ptr @H5E_OHDR_g, align 8, !tbaa !13
  %189 = load i64, ptr @H5E_CANTRELEASE_g, align 8, !tbaa !13
  %190 = call i32 (ptr, ptr, i32, i64, i64, ptr, ...) @H5E_printf_stack(ptr noundef @.str.3, ptr noundef @__func__.H5O__cache_deserialize, i32 noundef 318, i64 noundef %188, i64 noundef %189, ptr noundef @.str.15)
  br label %191

191:                                              ; preds = %187
  br label %192

192:                                              ; preds = %191
  store i8 1, ptr %12, align 1, !tbaa !9
  %193 = load i8, ptr %12, align 1, !tbaa !9, !range !11, !noundef !12
  %194 = trunc i8 %193 to i1
  %195 = zext i1 %194 to i8
  store i8 %195, ptr %12, align 1, !tbaa !9
  br label %196

196:                                              ; preds = %192
  br label %197

197:                                              ; preds = %196
  store ptr null, ptr %11, align 8, !tbaa !3
  br label %198

198:                                              ; preds = %197
  br label %199

199:                                              ; preds = %198
  br label %200

200:                                              ; preds = %199, %180
  br label %201

201:                                              ; preds = %200, %177, %174
  br label %202

202:                                              ; preds = %201, %20
  %203 = load ptr, ptr %11, align 8, !tbaa !3
  call void @llvm.lifetime.end.p0(i64 1, ptr %12) #7
  call void @llvm.lifetime.end.p0(i64 8, ptr %11) #7
  call void @llvm.lifetime.end.p0(i64 8, ptr %10) #7
  call void @llvm.lifetime.end.p0(i64 8, ptr %9) #7
  ret ptr %203
}