; Function Attrs: nounwind uwtable
define internal ptr @H5O__cache_deserialize(ptr noundef %0, i64 noundef %1, ptr noundef captures(none) %2, ptr noundef writeonly captures(none) %3) #1 {
  %5 = load i8, ptr @H5O_init_g, align 1, !tbaa !3, !range !7, !noundef !8
  %6 = trunc nuw i8 %5 to i1
  %7 = load i8, ptr @H5_libterm_g, align 1, !range !7
  %8 = trunc nuw i8 %7 to i1
  %9 = xor i1 %8, true
  %10 = select i1 %6, i1 true, i1 %9
  br i1 %10, label %11, label %.thread, !prof !9

11:                                               ; preds = %4
  %12 = tail call fastcc i32 @H5O__prefix_deserialize(ptr noundef %0, i64 noundef %1, ptr noundef %2)
  %13 = icmp slt i32 %12, 0
  br i1 %13, label %14, label %18

14:                                               ; preds = %11
  %15 = load i64, ptr @H5E_OHDR_g, align 8, !tbaa !10
  %16 = load i64, ptr @H5E_CANTDECODE_g, align 8, !tbaa !10
  %17 = tail call i32 (ptr, ptr, i32, i64, i64, ptr, ...) @H5E_printf_stack(ptr noundef nonnull @.str.3, ptr noundef nonnull @__func__.H5O__cache_deserialize, i32 noundef 282, i64 noundef %15, i64 noundef %16, ptr noundef nonnull @.str.4) #9
  br label %.thread

18:                                               ; preds = %11
  %19 = getelementptr inbounds nuw i8, ptr %2, i64 16
  %20 = load ptr, ptr %19, align 8, !tbaa !20
  %21 = getelementptr inbounds nuw i8, ptr %2, i64 32
  %22 = load ptr, ptr %21, align 8, !tbaa !36
  %23 = tail call i32 @H5F_get_intent(ptr noundef %22) #9
  %24 = and i32 %23, 32
  %.not = icmp eq i32 %24, 0
  %25 = getelementptr inbounds nuw i8, ptr %20, i64 264
  %.lobit = lshr exact i32 %24, 5
  %26 = trunc nuw nsw i32 %.lobit to i8
  store i8 %26, ptr %25, align 8, !tbaa !37
  br i1 %.not, label %35, label %27

27:                                               ; preds = %18
  %28 = tail call ptr @H5AC_proxy_entry_create() #9
  %29 = getelementptr inbounds nuw i8, ptr %20, i64 408
  store ptr %28, ptr %29, align 8, !tbaa !38
  %30 = icmp eq ptr %28, null
  br i1 %30, label %31, label %37

31:                                               ; preds = %27
  %32 = load i64, ptr @H5E_OHDR_g, align 8, !tbaa !10
  %33 = load i64, ptr @H5E_CANTCREATE_g, align 8, !tbaa !10
  %34 = tail call i32 (ptr, ptr, i32, i64, i64, ptr, ...) @H5E_printf_stack(ptr noundef nonnull @.str.3, ptr noundef nonnull @__func__.H5O__cache_deserialize, i32 noundef 294, i64 noundef %32, i64 noundef %33, ptr noundef nonnull @.str.17) #9
  br label %64

35:                                               ; preds = %18
  %36 = getelementptr inbounds nuw i8, ptr %20, i64 408
  store ptr null, ptr %36, align 8, !tbaa !38
  br label %37

37:                                               ; preds = %27, %35
  %38 = getelementptr inbounds nuw i8, ptr %2, i64 56
  %39 = load i64, ptr %38, align 8, !tbaa !39
  %40 = getelementptr inbounds nuw i8, ptr %2, i64 8
  %41 = load i64, ptr %40, align 8, !tbaa !12
  %42 = tail call fastcc i32 @H5O__chunk_deserialize(ptr noundef nonnull %20, i64 noundef %39, i64 noundef %41, ptr noundef %0, i64 noundef %1, ptr noundef nonnull %21, ptr noundef %3)
  %43 = icmp slt i32 %42, 0
  br i1 %43, label %44, label %48

44:                                               ; preds = %37
  %45 = load i64, ptr @H5E_OHDR_g, align 8, !tbaa !10
  %46 = load i64, ptr @H5E_CANTINIT_g, align 8, !tbaa !10
  %47 = tail call i32 (ptr, ptr, i32, i64, i64, ptr, ...) @H5E_printf_stack(ptr noundef nonnull @.str.3, ptr noundef nonnull @__func__.H5O__cache_deserialize, i32 noundef 302, i64 noundef %45, i64 noundef %46, ptr noundef nonnull @.str.18) #9
  br label %64

48:                                               ; preds = %37
  %49 = getelementptr inbounds nuw i8, ptr %20, i64 288
  %50 = load i8, ptr %49, align 8, !tbaa !21
  %51 = icmp eq i8 %50, 1
  br i1 %51, label %52, label %63

52:                                               ; preds = %48
  %53 = getelementptr inbounds nuw i8, ptr %2, i64 4
  %54 = load i32, ptr %53, align 4, !tbaa !40
  %55 = zext i32 %54 to i64
  %56 = getelementptr inbounds nuw i8, ptr %20, i64 336
  %57 = load i64, ptr %56, align 8, !tbaa !41
  %58 = icmp ugt i64 %57, %55
  br i1 %58, label %59, label %63

59:                                               ; preds = %52
  %60 = load i64, ptr @H5E_OHDR_g, align 8, !tbaa !10
  %61 = load i64, ptr @H5E_BADVALUE_g, align 8, !tbaa !10
  %62 = tail call i32 (ptr, ptr, i32, i64, i64, ptr, ...) @H5E_printf_stack(ptr noundef nonnull @.str.3, ptr noundef nonnull @__func__.H5O__cache_deserialize, i32 noundef 306, i64 noundef %60, i64 noundef %61, ptr noundef nonnull @.str.19) #9
  br label %64

63:                                               ; preds = %52, %48
  store i8 1, ptr %2, align 8, !tbaa !42
  br label %.thread

64:                                               ; preds = %31, %44, %59
  %65 = tail call i32 @H5O__free(ptr noundef nonnull %20, i1 noundef zeroext false) #9
  %66 = icmp slt i32 %65, 0
  br i1 %66, label %67, label %.thread

67:                                               ; preds = %64
  %68 = load i64, ptr @H5E_OHDR_g, align 8, !tbaa !10
  %69 = load i64, ptr @H5E_CANTRELEASE_g, align 8, !tbaa !10
  %70 = tail call i32 (ptr, ptr, i32, i64, i64, ptr, ...) @H5E_printf_stack(ptr noundef nonnull @.str.3, ptr noundef nonnull @__func__.H5O__cache_deserialize, i32 noundef 318, i64 noundef %68, i64 noundef %69, ptr noundef nonnull @.str.15) #9
  br label %.thread

.thread:                                          ; preds = %14, %63, %67, %64, %4
  %.0 = phi ptr [ null, %67 ], [ null, %64 ], [ null, %4 ], [ %20, %63 ], [ null, %14 ]
  ret ptr %.0
}